target datalayout = "e-m:e-p270:32:32-p271:32:32-p272:64:64-i64:64-i128:128-f80:128-n8:16:32:64-S128"
target triple = "x86_64-pc-linux-gnu"

%"class.llvm::Value" = type { i8, i8, i16, i32, ptr, ptr }
%"class.llvm::FastMathFlags" = type { i32 }

; Function Attrs: mustprogress nounwind uwtable
define linkonce_odr hidden noundef ptr @_ZN4llvm16cast_convert_valINS_14FPMathOperatorEPNS_11InstructionES3_E4doitEPKS2_(ptr noundef %0) #0 comdat align 2 {
  %2 = alloca ptr, align 8
  store ptr %0, ptr %2, align 8
  %3 = load ptr, ptr %2, align 8
  ret ptr %3
}

; Function Attrs: mustprogress nounwind uwtable
define linkonce_odr hidden noundef ptr @_ZN4llvm8CastInfoINS_14FPMathOperatorEPNS_11InstructionEvE6doCastERKS3_(ptr noundef nonnull align 8 dereferenceable(8) %0) #0 comdat align 2 {
  %2 = alloca ptr, align 8
  store ptr %0, ptr %2, align 8
  %3 = load ptr, ptr %2, align 8
  %4 = load ptr, ptr %3, align 8
  %5 = call noundef ptr @_ZN4llvm16cast_convert_valINS_14FPMathOperatorEPNS_11InstructionES3_E4doitEPKS2_(ptr noundef %4)
  ret ptr %5
}

; Function Attrs: mustprogress nounwind uwtable
define linkonce_odr hidden void @_ZN4llvm14FPMathOperator17copyFastMathFlagsENS_13FastMathFlagsE(ptr noundef nonnull align 8 dereferenceable(24) %0, i32 %1) #0 comdat align 2 {
  %3 = alloca %"class.llvm::FastMathFlags", align 4
  %4 = alloca ptr, align 8
  %5 = getelementptr inbounds nuw %"class.llvm::FastMathFlags", ptr %3, i32 0, i32 0
  store i32 %1, ptr %5, align 4
  store ptr %0, ptr %4, align 8
  %6 = load ptr, ptr %4, align 8
  %7 = getelementptr inbounds nuw %"class.llvm::FastMathFlags", ptr %3, i32 0, i32 0
  %8 = load i32, ptr %7, align 4
  %9 = trunc i32 %8 to i8
  %10 = getelementptr inbounds nuw %"class.llvm::Value", ptr %6, i32 0, i32 1
  %11 = load i8, ptr %10, align 1
  %12 = and i8 %9, 127
  %13 = shl i8 %12, 1
  %14 = and i8 %11, 1
  %15 = or i8 %14, %13
  store i8 %15, ptr %10, align 1
  ret void
}

; Function Attrs: mustprogress nounwind uwtable
define linkonce_odr hidden noundef ptr @_ZN4llvm4castINS_14FPMathOperatorENS_11InstructionEEEDcPT0_(ptr noundef %0) #0 comdat {
  %2 = alloca ptr, align 8
  store ptr %0, ptr %2, align 8
  %3 = call noundef ptr @_ZN4llvm8CastInfoINS_14FPMathOperatorEPNS_11InstructionEvE6doCastERKS3_(ptr noundef nonnull align 8 dereferenceable(8) %2)
  ret ptr %3
}

; Function Attrs: mustprogress nounwind uwtable
define dso_local void @_ZN4llvm11Instruction17copyFastMathFlagsENS_13FastMathFlagsE(ptr noundef nonnull align 8 dereferenceable(72) %0, i32 %1) #0 align 2 {
  %3 = alloca %"class.llvm::FastMathFlags", align 4
  %4 = alloca ptr, align 8
  %5 = alloca %"class.llvm::FastMathFlags", align 4
  %6 = getelementptr inbounds nuw %"class.llvm::FastMathFlags", ptr %3, i32 0, i32 0
  store i32 %1, ptr %6, align 4
  store ptr %0, ptr %4, align 8
  %7 = load ptr, ptr %4, align 8
  %8 = call noundef ptr @_ZN4llvm4castINS_14FPMathOperatorENS_11InstructionEEEDcPT0_(ptr noundef %7)
  call void @llvm.memcpy.p0.p0.i64(ptr align 4 %5, ptr align 4 %3, i64 4, i1 false)
  %9 = getelementptr inbounds nuw %"class.llvm::FastMathFlags", ptr %5, i32 0, i32 0
  %10 = load i32, ptr %9, align 4
  call void @_ZN4llvm14FPMathOperator17copyFastMathFlagsENS_13FastMathFlagsE(ptr noundef nonnull align 8 dereferenceable(24) %8, i32 %10)
  ret void
}