; Function Attrs: mustprogress nofree norecurse nosync nounwind willreturn memory(argmem: readwrite) uwtable
define dso_local void @_ZN4llvm11Instruction17copyFastMathFlagsENS_13FastMathFlagsE(ptr nocapture noundef nonnull align 8 dereferenceable(72) %0, i32 %1) local_unnamed_addr #6 align 2 {
  %3 = trunc i32 %1 to i8
  %4 = getelementptr inbounds nuw i8, ptr %0, i64 1
  %5 = load i8, ptr %4, align 1
  %6 = shl i8 %3, 1
  %7 = and i8 %5, 1
  %8 = or disjoint i8 %7, %6
  store i8 %8, ptr %4, align 1
  ret void
}